; ModuleID = '15/1447.c'
source_filename = "15/1447.c"
target datalayout = "e-m:e-p270:32:32-p271:32:32-p272:64:64-i64:64-f80:128-n8:16:32:64-S128"
target triple = "x86_64-pc-linux-gnu"

@.str = private unnamed_addr constant [3 x i8] c"%d\00", align 1

; Function Attrs: noinline nounwind uwtable
define dso_local i32 @main() #0 {
  %1 = alloca i32, align 4
  %2 = alloca i32, align 4
  %3 = alloca i32, align 4
  %4 = alloca i32, align 4
  %5 = alloca i32, align 4
  %6 = alloca i32, align 4
  %7 = alloca i32, align 4
  %8 = alloca i32, align 4
  %9 = alloca [1000 x [1000 x i32]], align 16
  %10 = alloca i32, align 4
  store i32 0, i32* %1, align 4
  %11 = call i32 (i8*, ...) @__isoc99_scanf(i8* getelementptr inbounds ([3 x i8], [3 x i8]* @.str, i64 0, i64 0), i32* %4)
  store i32 0, i32* %2, align 4
  br label %12

12:                                               ; preds = %33, %0
  %13 = load i32, i32* %2, align 4
  %14 = load i32, i32* %4, align 4
  %15 = icmp slt i32 %13, %14
  br i1 %15, label %16, label %36

16:                                               ; preds = %12
  store i32 0, i32* %3, align 4
  br label %17

17:                                               ; preds = %29, %16
  %18 = load i32, i32* %3, align 4
  %19 = load i32, i32* %4, align 4
  %20 = icmp slt i32 %18, %19
  br i1 %20, label %21, label %32

21:                                               ; preds = %17
  %22 = load i32, i32* %2, align 4
  %23 = sext i32 %22 to i64
  %24 = getelementptr inbounds [1000 x [1000 x i32]], [1000 x [1000 x i32]]* %9, i64 0, i64 %23
  %25 = load i32, i32* %3, align 4
  %26 = sext i32 %25 to i64
  %27 = getelementptr inbounds [1000 x i32], [1000 x i32]* %24, i64 0, i64 %26
  %28 = call i32 (i8*, ...) @__isoc99_scanf(i8* getelementptr inbounds ([3 x i8], [3 x i8]* @.str, i64 0, i64 0), i32* %27)
  br label %29

29:                                               ; preds = %21
  %30 = load i32, i32* %3, align 4
  %31 = add nsw i32 %30, 1
  store i32 %31, i32* %3, align 4
  br label %17

32:                                               ; preds = %17
  br label %33

33:                                               ; preds = %32
  %34 = load i32, i32* %2, align 4
  %35 = add nsw i32 %34, 1
  store i32 %35, i32* %2, align 4
  br label %12

36:                                               ; preds = %12
  store i32 0, i32* %2, align 4
  br label %37

37:                                               ; preds = %85, %36
  %38 = load i32, i32* %2, align 4
  %39 = load i32, i32* %4, align 4
  %40 = sub nsw i32 %39, 1
  %41 = icmp slt i32 %38, %40
  br i1 %41, label %42, label %88

42:                                               ; preds = %37
  store i32 0, i32* %3, align 4
  br label %43

43:                                               ; preds = %81, %42
  %44 = load i32, i32* %3, align 4
  %45 = load i32, i32* %4, align 4
  %46 = sub nsw i32 %45, 1
  %47 = icmp slt i32 %44, %46
  br i1 %47, label %48, label %84

48:                                               ; preds = %43
  %49 = load i32, i32* %2, align 4
  %50 = sext i32 %49 to i64
  %51 = getelementptr inbounds [1000 x [1000 x i32]], [1000 x [1000 x i32]]* %9, i64 0, i64 %50
  %52 = load i32, i32* %3, align 4
  %53 = sext i32 %52 to i64
  %54 = getelementptr inbounds [1000 x i32], [1000 x i32]* %51, i64 0, i64 %53
  %55 = load i32, i32* %54, align 4
  %56 = icmp eq i32 %55, 0
  br i1 %56, label %57, label %80

57:                                               ; preds = %48
  %58 = load i32, i32* %2, align 4
  %59 = sext i32 %58 to i64
  %60 = getelementptr inbounds [1000 x [1000 x i32]], [1000 x [1000 x i32]]* %9, i64 0, i64 %59
  %61 = load i32, i32* %3, align 4
  %62 = add nsw i32 %61, 1
  %63 = sext i32 %62 to i64
  %64 = getelementptr inbounds [1000 x i32], [1000 x i32]* %60, i64 0, i64 %63
  %65 = load i32, i32* %64, align 4
  %66 = icmp eq i32 %65, 0
  br i1 %66, label %67, label %80

67:                                               ; preds = %57
  %68 = load i32, i32* %2, align 4
  %69 = add nsw i32 %68, 1
  %70 = sext i32 %69 to i64
  %71 = getelementptr inbounds [1000 x [1000 x i32]], [1000 x [1000 x i32]]* %9, i64 0, i64 %70
  %72 = load i32, i32* %3, align 4
  %73 = sext i32 %72 to i64
  %74 = getelementptr inbounds [1000 x i32], [1000 x i32]* %71, i64 0, i64 %73
  %75 = load i32, i32* %74, align 4
  %76 = icmp eq i32 %75, 0
  br i1 %76, label %77, label %80

77:                                               ; preds = %67
  %78 = load i32, i32* %2, align 4
  store i32 %78, i32* %5, align 4
  %79 = load i32, i32* %3, align 4
  store i32 %79, i32* %6, align 4
  br label %80

80:                                               ; preds = %77, %67, %57, %48
  br label %81

81:                                               ; preds = %80
  %82 = load i32, i32* %3, align 4
  %83 = add nsw i32 %82, 1
  store i32 %83, i32* %3, align 4
  br label %43

84:                                               ; preds = %43
  br label %85

85:                                               ; preds = %84
  %86 = load i32, i32* %2, align 4
  %87 = add nsw i32 %86, 1
  store i32 %87, i32* %2, align 4
  br label %37

88:                                               ; preds = %37
  store i32 0, i32* %2, align 4
  br label %89

89:                                               ; preds = %135, %88
  %90 = load i32, i32* %2, align 4
  %91 = load i32, i32* %4, align 4
  %92 = icmp slt i32 %90, %91
  br i1 %92, label %93, label %138

93:                                               ; preds = %89
  store i32 0, i32* %3, align 4
  br label %94

94:                                               ; preds = %131, %93
  %95 = load i32, i32* %3, align 4
  %96 = load i32, i32* %4, align 4
  %97 = icmp slt i32 %95, %96
  br i1 %97, label %98, label %134

98:                                               ; preds = %94
  %99 = load i32, i32* %2, align 4
  %100 = sext i32 %99 to i64
  %101 = getelementptr inbounds [1000 x [1000 x i32]], [1000 x [1000 x i32]]* %9, i64 0, i64 %100
  %102 = load i32, i32* %3, align 4
  %103 = sext i32 %102 to i64
  %104 = getelementptr inbounds [1000 x i32], [1000 x i32]* %101, i64 0, i64 %103
  %105 = load i32, i32* %104, align 4
  %106 = icmp eq i32 %105, 0
  br i1 %106, label %107, label %130

107:                                              ; preds = %98
  %108 = load i32, i32* %2, align 4
  %109 = sext i32 %108 to i64
  %110 = getelementptr inbounds [1000 x [1000 x i32]], [1000 x [1000 x i32]]* %9, i64 0, i64 %109
  %111 = load i32, i32* %3, align 4
  %112 = sub nsw i32 %111, 1
  %113 = sext i32 %112 to i64
  %114 = getelementptr inbounds [1000 x i32], [1000 x i32]* %110, i64 0, i64 %113
  %115 = load i32, i32* %114, align 4
  %116 = icmp eq i32 %115, 0
  br i1 %116, label %117, label %130

117:                                              ; preds = %107
  %118 = load i32, i32* %2, align 4
  %119 = sub nsw i32 %118, 1
  %120 = sext i32 %119 to i64
  %121 = getelementptr inbounds [1000 x [1000 x i32]], [1000 x [1000 x i32]]* %9, i64 0, i64 %120
  %122 = load i32, i32* %3, align 4
  %123 = sext i32 %122 to i64
  %124 = getelementptr inbounds [1000 x i32], [1000 x i32]* %121, i64 0, i64 %123
  %125 = load i32, i32* %124, align 4
  %126 = icmp eq i32 %125, 0
  br i1 %126, label %127, label %130

127:                                              ; preds = %117
  %128 = load i32, i32* %2, align 4
  store i32 %128, i32* %7, align 4
  %129 = load i32, i32* %3, align 4
  store i32 %129, i32* %8, align 4
  br label %130

130:                                              ; preds = %127, %117, %107, %98
  br label %131

131:                                              ; preds = %130
  %132 = load i32, i32* %3, align 4
  %133 = add nsw i32 %132, 1
  store i32 %133, i32* %3, align 4
  br label %94

134:                                              ; preds = %94
  br label %135

135:                                              ; preds = %134
  %136 = load i32, i32* %2, align 4
  %137 = add nsw i32 %136, 1
  store i32 %137, i32* %2, align 4
  br label %89

138:                                              ; preds = %89
  %139 = load i32, i32* %7, align 4
  %140 = load i32, i32* %5, align 4
  %141 = sub nsw i32 %139, %140
  %142 = sub nsw i32 %141, 1
  %143 = load i32, i32* %8, align 4
  %144 = load i32, i32* %6, align 4
  %145 = sub nsw i32 %143, %144
  %146 = sub nsw i32 %145, 1
  %147 = mul nsw i32 %142, %146
  store i32 %147, i32* %10, align 4
  %148 = load i32, i32* %10, align 4
  %149 = call i32 (i8*, ...) @printf(i8* getelementptr inbounds ([3 x i8], [3 x i8]* @.str, i64 0, i64 0), i32 %148)
  ret i32 0
}

declare dso_local i32 @__isoc99_scanf(i8*, ...) #1

declare dso_local i32 @printf(i8*, ...) #1


!llvm.module.flags = !{!0}
!llvm.ident = !{!1}

!0 = !{i32 1, !"wchar_size", i32 4}
!1 = !{!"clang version 10.0.0-4ubuntu1 "}
